; Function Attrs: nounwind uwtable
define dso_local void @strbuf_addstr_urlencode(ptr noundef captures(none) %0, ptr noundef readonly captures(none) %1, ptr noundef readonly captures(none) %2) local_unnamed_addr #3 {
  %4 = tail call i64 @strlen(ptr noundef nonnull dereferenceable(1) %1) #26
  %5 = load i64, ptr %0, align 8, !tbaa !15
  %.not.i.i = icmp eq i64 %5, 0
  %6 = icmp eq i64 %4, -1
  br i1 %6, label %12, label %7

7:                                                ; preds = %3
  %8 = getelementptr inbounds nuw i8, ptr %0, i64 8
  %9 = load i64, ptr %8, align 8, !tbaa !16
  %10 = sub nuw i64 -2, %4
  %11 = icmp ult i64 %10, %9
  br i1 %11, label %12, label %13

12:                                               ; preds = %7, %3
  tail call void (ptr, ...) @die(ptr noundef nonnull @.str) #24
  unreachable

13:                                               ; preds = %7
  br i1 %.not.i.i, label %14, label %16

14:                                               ; preds = %13
  %15 = getelementptr inbounds nuw i8, ptr %0, i64 16
  store ptr null, ptr %15, align 8, !tbaa !12
  br label %16

16:                                               ; preds = %14, %13
  %17 = add nuw i64 %4, 1
  %18 = add i64 %17, %9
  %19 = icmp ugt i64 %18, %5
  br i1 %19, label %st_mult.exit.i.i, label %26

st_mult.exit.i.i:                                 ; preds = %16
  %20 = mul i64 %5, 3
  %21 = add i64 %20, 48
  %22 = lshr i64 %21, 1
  %..i.i = tail call i64 @llvm.umax.i64(i64 %22, i64 %18)
  store i64 %..i.i, ptr %0, align 8, !tbaa !15
  %23 = getelementptr inbounds nuw i8, ptr %0, i64 16
  %24 = load ptr, ptr %23, align 8, !tbaa !12
  %25 = tail call ptr @xrealloc(ptr noundef %24, i64 noundef %..i.i) #25
  store ptr %25, ptr %23, align 8, !tbaa !12
  br label %26

26:                                               ; preds = %st_mult.exit.i.i, %16
  br i1 %.not.i.i, label %27, label %strbuf_grow.exit.i

27:                                               ; preds = %26
  %28 = getelementptr inbounds nuw i8, ptr %0, i64 16
  %29 = load ptr, ptr %28, align 8, !tbaa !12
  store i8 0, ptr %29, align 1, !tbaa !4
  br label %strbuf_grow.exit.i

strbuf_grow.exit.i:                               ; preds = %27, %26
  %.not12.i = icmp eq i64 %4, 0
  br i1 %.not12.i, label %strbuf_add_urlencode.exit, label %.lr.ph.i

.lr.ph.i:                                         ; preds = %strbuf_grow.exit.i
  %30 = getelementptr inbounds nuw i8, ptr %0, i64 16
  br label %31

31:                                               ; preds = %61, %.lr.ph.i
  %.in.i = phi i64 [ %4, %.lr.ph.i ], [ %32, %61 ]
  %.013.i = phi ptr [ %1, %.lr.ph.i ], [ %33, %61 ]
  %32 = add i64 %.in.i, -1
  %33 = getelementptr inbounds nuw i8, ptr %.013.i, i64 1
  %34 = load i8, ptr %.013.i, align 1, !tbaa !4
  %35 = tail call i32 %2(i8 noundef signext %34) #25
  %.not10.i = icmp eq i32 %35, 0
  br i1 %.not10.i, label %59, label %36

36:                                               ; preds = %31
  %37 = load i64, ptr %0, align 8, !tbaa !15
  %.not.i.i.i = icmp eq i64 %37, 0
  %38 = load i64, ptr %8, align 8, !tbaa !16
  br i1 %.not.i.i.i, label %strbuf_avail.exit.thread.i.i, label %strbuf_avail.exit.i.i

strbuf_avail.exit.i.i:                            ; preds = %36
  %.neg.i.i = add i64 %38, 1
  %.not.i11.i = icmp eq i64 %37, %.neg.i.i
  br i1 %.not.i11.i, label %.thread.i.i, label %strbuf_addch.exit.i

strbuf_avail.exit.thread.i.i:                     ; preds = %36
  %39 = icmp ugt i64 %38, -3
  br i1 %39, label %41, label %42

.thread.i.i:                                      ; preds = %strbuf_avail.exit.i.i
  %40 = icmp ugt i64 %38, -3
  br i1 %40, label %41, label %.thread8.i.i

41:                                               ; preds = %.thread.i.i, %strbuf_avail.exit.thread.i.i
  tail call void (ptr, ...) @die(ptr noundef nonnull @.str) #24
  unreachable

42:                                               ; preds = %strbuf_avail.exit.thread.i.i
  store ptr null, ptr %30, align 8, !tbaa !12
  br label %.thread8.i.i

.thread8.i.i:                                     ; preds = %42, %.thread.i.i
  %43 = add nuw i64 %38, 2
  %44 = icmp ugt i64 %43, %37
  br i1 %44, label %45, label %strbuf_addch.exit.i

45:                                               ; preds = %.thread8.i.i
  %46 = mul i64 %37, 3
  %47 = add i64 %46, 48
  %48 = lshr i64 %47, 1
  %..i.i.i = tail call i64 @llvm.umax.i64(i64 %48, i64 %43)
  store i64 %..i.i.i, ptr %0, align 8, !tbaa !15
  %49 = load ptr, ptr %30, align 8, !tbaa !12
  %50 = tail call ptr @xrealloc(ptr noundef %49, i64 noundef %..i.i.i) #25
  store ptr %50, ptr %30, align 8, !tbaa !12
  br i1 %.not.i.i.i, label %51, label %strbuf_addch.exit.i

51:                                               ; preds = %45
  store i8 0, ptr %50, align 1, !tbaa !4
  br label %strbuf_addch.exit.i

strbuf_addch.exit.i:                              ; preds = %51, %45, %.thread8.i.i, %strbuf_avail.exit.i.i
  %52 = load ptr, ptr %30, align 8, !tbaa !12
  %53 = load i64, ptr %8, align 8, !tbaa !16
  %54 = add i64 %53, 1
  store i64 %54, ptr %8, align 8, !tbaa !16
  %55 = getelementptr inbounds nuw i8, ptr %52, i64 %53
  store i8 %34, ptr %55, align 1, !tbaa !4
  %56 = load ptr, ptr %30, align 8, !tbaa !12
  %57 = load i64, ptr %8, align 8, !tbaa !16
  %58 = getelementptr inbounds nuw i8, ptr %56, i64 %57
  store i8 0, ptr %58, align 1, !tbaa !4
  br label %61

59:                                               ; preds = %31
  %60 = zext i8 %34 to i32
  tail call void (ptr, ptr, ...) @strbuf_addf(ptr noundef nonnull %0, ptr noundef nonnull @.str.30, i32 noundef %60)
  br label %61

61:                                               ; preds = %59, %strbuf_addch.exit.i
  %.not.i = icmp eq i64 %32, 0
  br i1 %.not.i, label %strbuf_add_urlencode.exit, label %31, !llvm.loop !39

strbuf_add_urlencode.exit:                        ; preds = %61, %strbuf_grow.exit.i
  ret void
}